; Function Attrs: nounwind uwtable
define internal fastcc noundef zeroext i1 @VULKAN_HandleDeviceLost(ptr noundef %0) unnamed_addr #0 {
  %2 = alloca %union.SDL_Event, align 8
  %3 = getelementptr inbounds nuw i8, ptr %0, i64 696
  %4 = load ptr, ptr %3, align 8
  tail call fastcc void @VULKAN_DestroyAll(ptr noundef %0)
  %5 = getelementptr inbounds nuw i8, ptr %4, i64 1776
  %6 = load i32, ptr %5, align 8
  %7 = tail call fastcc i32 @VULKAN_CreateDeviceResources(ptr noundef %0, i32 noundef %6)
  %8 = icmp eq i32 %7, 0
  br i1 %8, label %9, label %12

9:                                                ; preds = %1
  %10 = tail call fastcc i32 @VULKAN_CreateWindowSizeDependentResources(ptr noundef nonnull %0)
  %11 = icmp eq i32 %10, 0
  br i1 %11, label %14, label %12

12:                                               ; preds = %1, %9
  %13 = tail call ptr @SDL_GetError_REAL() #8
  tail call void (i32, ptr, ...) @SDL_LogError_REAL(i32 noundef 6, ptr noundef nonnull @.str.44, ptr noundef %13) #8
  tail call fastcc void @VULKAN_DestroyAll(ptr noundef nonnull %0)
  br label %14

14:                                               ; preds = %9, %12
  %.09 = phi i1 [ false, %12 ], [ true, %9 ]
  %15 = phi i32 [ 8194, %12 ], [ 8193, %9 ]
  call void @llvm.lifetime.start.p0(i64 128, ptr nonnull %2) #8
  call void @llvm.memset.p0.i64(ptr noundef nonnull align 8 dereferenceable(128) %2, i8 0, i64 128, i1 false)
  store i32 %15, ptr %2, align 8
  %16 = tail call ptr @SDL_GetRenderWindow_REAL(ptr noundef nonnull %0) #8
  %17 = tail call i32 @SDL_GetWindowID_REAL(ptr noundef %16) #8
  %18 = getelementptr inbounds nuw i8, ptr %2, i64 16
  store i32 %17, ptr %18, align 8
  %19 = call zeroext i1 @SDL_PushEvent_REAL(ptr noundef nonnull %2) #8
  call void @llvm.lifetime.end.p0(i64 128, ptr nonnull %2) #8
  ret i1 %.09
}